; Function Attrs: nounwind uwtable
define i32 @pmix20_bfrop_pack_modex(ptr noundef %0, ptr noundef %1, ptr noundef %2, i32 noundef %3, i16 noundef zeroext %4) local_unnamed_addr #0 {
  %6 = icmp sgt i32 %3, 0
  br i1 %6, label %.lr.ph, label %pmix20_bfrop_pack_byte.exit

.lr.ph:                                           ; preds = %5
  %7 = getelementptr inbounds nuw i8, ptr %1, i64 120
  %8 = getelementptr inbounds nuw i8, ptr %1, i64 136
  %9 = getelementptr inbounds nuw i8, ptr %1, i64 160
  %wide.trip.count = zext nneg i32 %3 to i64
  br label %10

10:                                               ; preds = %.lr.ph, %57
  %indvars.iv = phi i64 [ 0, %.lr.ph ], [ %indvars.iv.next, %57 ]
  %11 = getelementptr inbounds nuw %struct.pmix_modex_data, ptr %2, i64 %indvars.iv
  %12 = getelementptr inbounds nuw i8, ptr %11, i64 272
  %13 = tail call i32 @pmix20_bfrop_store_data_type(ptr noundef %0, ptr noundef %1, i16 noundef zeroext 15) #8
  %.not.i = icmp eq i32 %13, 0
  br i1 %.not.i, label %14, label %pmix20_bfrop_pack_byte.exit

14:                                               ; preds = %10
  %15 = load i32, ptr getelementptr inbounds nuw (i8, ptr @pmix_bfrops_base_framework, i64 76), align 4, !tbaa !14
  %or.cond.i.i = icmp ult i32 %15, 64
  br i1 %or.cond.i.i, label %16, label %22

16:                                               ; preds = %14
  %17 = zext nneg i32 %15 to i64
  %18 = getelementptr inbounds nuw [0 x %struct.pmix_output_desc_t], ptr @pmix_output_info, i64 0, i64 %17, i32 2
  %19 = load i32, ptr %18, align 4, !tbaa !20
  %20 = icmp sgt i32 %19, 19
  br i1 %20, label %21, label %22

21:                                               ; preds = %16
  tail call void (i32, ptr, ...) @pmix_output(i32 noundef %15, ptr noundef nonnull @.str, ptr noundef %1, ptr noundef nonnull %12, i64 noundef 1, i32 noundef 15) #8
  br label %22

22:                                               ; preds = %21, %16, %14
  %23 = load i8, ptr %7, align 8, !tbaa !3
  %24 = icmp eq i8 %23, 2
  br i1 %24, label %25, label %27

25:                                               ; preds = %22
  %26 = tail call i32 @pmix20_bfrop_store_data_type(ptr noundef %0, ptr noundef nonnull %1, i16 noundef zeroext 15) #8
  %.not.i.i = icmp eq i32 %26, 0
  br i1 %.not.i.i, label %27, label %pmix20_bfrop_pack_byte.exit

27:                                               ; preds = %25, %22
  %28 = load i32, ptr getelementptr inbounds nuw (i8, ptr @pmix_mca_bfrops_v20_component, i64 360), align 8, !tbaa !25
  %.not.i.i.i = icmp sgt i32 %28, 15
  br i1 %.not.i.i.i, label %pmix_pointer_array_get_item.exit.i.i, label %pmix20_bfrop_pack_byte.exit, !prof !28

pmix_pointer_array_get_item.exit.i.i:             ; preds = %27
  %29 = load ptr, ptr getelementptr inbounds nuw (i8, ptr @pmix_mca_bfrops_v20_component, i64 384), align 8, !tbaa !29
  %30 = getelementptr inbounds nuw i8, ptr %29, i64 120
  %31 = load ptr, ptr %30, align 8, !tbaa !30
  %32 = icmp eq ptr %31, null
  br i1 %32, label %pmix20_bfrop_pack_byte.exit, label %pmix20_bfrop_pack_sizet.exit

pmix20_bfrop_pack_sizet.exit:                     ; preds = %pmix_pointer_array_get_item.exit.i.i
  %33 = getelementptr inbounds nuw i8, ptr %31, i64 136
  %34 = load ptr, ptr %33, align 8, !tbaa !31
  %35 = tail call i32 %34(ptr noundef %0, ptr noundef nonnull %1, ptr noundef nonnull %12, i32 noundef 1, i16 noundef zeroext 15) #8
  %.not = icmp eq i32 %35, 0
  br i1 %.not, label %36, label %pmix20_bfrop_pack_byte.exit

36:                                               ; preds = %pmix20_bfrop_pack_sizet.exit
  %37 = load i64, ptr %12, align 8, !tbaa !83
  %.not22 = icmp eq i64 %37, 0
  br i1 %.not22, label %57, label %38

38:                                               ; preds = %36
  %39 = getelementptr inbounds nuw i8, ptr %11, i64 264
  %40 = load ptr, ptr %39, align 8, !tbaa !85
  %41 = trunc i64 %37 to i32
  %42 = load i32, ptr getelementptr inbounds nuw (i8, ptr @pmix_bfrops_base_framework, i64 76), align 4, !tbaa !14
  %or.cond.i = icmp ult i32 %42, 64
  br i1 %or.cond.i, label %43, label %49

43:                                               ; preds = %38
  %44 = zext nneg i32 %42 to i64
  %45 = getelementptr inbounds nuw [0 x %struct.pmix_output_desc_t], ptr @pmix_output_info, i64 0, i64 %44, i32 2
  %46 = load i32, ptr %45, align 4, !tbaa !20
  %47 = icmp sgt i32 %46, 19
  br i1 %47, label %48, label %49

48:                                               ; preds = %43
  tail call void (i32, ptr, ...) @pmix_output(i32 noundef %42, ptr noundef nonnull @.str.2, i32 noundef %41) #8
  br label %49

49:                                               ; preds = %48, %43, %38
  %sext = shl i64 %37, 32
  %50 = ashr exact i64 %sext, 32
  %51 = tail call ptr @pmix_bfrop_buffer_extend(ptr noundef nonnull %1, i64 noundef %50) #8
  %52 = icmp eq ptr %51, null
  br i1 %52, label %pmix20_bfrop_pack_byte.exit, label %pmix20_bfrop_pack_byte.exit.thread

pmix20_bfrop_pack_byte.exit.thread:               ; preds = %49
  tail call void @llvm.memcpy.p0.p0.i64(ptr nonnull align 1 %51, ptr readonly align 1 %40, i64 %50, i1 false)
  %53 = load ptr, ptr %8, align 8, !tbaa !23
  %54 = getelementptr inbounds i8, ptr %53, i64 %50
  store ptr %54, ptr %8, align 8, !tbaa !23
  %55 = load i64, ptr %9, align 8, !tbaa !24
  %56 = add i64 %55, %50
  store i64 %56, ptr %9, align 8, !tbaa !24
  br label %57

57:                                               ; preds = %pmix20_bfrop_pack_byte.exit.thread, %36
  %indvars.iv.next = add nuw nsw i64 %indvars.iv, 1
  %exitcond.not = icmp eq i64 %indvars.iv.next, %wide.trip.count
  br i1 %exitcond.not, label %pmix20_bfrop_pack_byte.exit, label %10, !llvm.loop !86

pmix20_bfrop_pack_byte.exit:                      ; preds = %pmix20_bfrop_pack_sizet.exit, %57, %49, %10, %25, %pmix_pointer_array_get_item.exit.i.i, %27, %5
  %.018 = phi i32 [ 0, %5 ], [ -21, %27 ], [ -21, %pmix_pointer_array_get_item.exit.i.i ], [ %26, %25 ], [ %13, %10 ], [ -29, %49 ], [ 0, %57 ], [ %35, %pmix20_bfrop_pack_sizet.exit ]
  ret i32 %.018
}